target datalayout = "e-m:e-p270:32:32-p271:32:32-p272:64:64-i64:64-i128:128-f80:128-n8:16:32:64-S128"
target triple = "x86_64-pc-linux-gnu"

%"class.open_spiel::chess_common::ZobristTable" = type { %"class.std::vector.11" }
%"class.std::vector.11" = type { %"struct.std::_Vector_base.12" }
%"struct.std::_Vector_base.12" = type { %"struct.std::_Vector_base<open_spiel::chess_common::ZobristTable<unsigned long, 2>, std::allocator<open_spiel::chess_common::ZobristTable<unsigned long, 2>>>::_Vector_impl" }
%"struct.std::_Vector_base<open_spiel::chess_common::ZobristTable<unsigned long, 2>, std::allocator<open_spiel::chess_common::ZobristTable<unsigned long, 2>>>::_Vector_impl" = type { %"struct.std::_Vector_base<open_spiel::chess_common::ZobristTable<unsigned long, 2>, std::allocator<open_spiel::chess_common::ZobristTable<unsigned long, 2>>>::_Vector_impl_data" }
%"struct.std::_Vector_base<open_spiel::chess_common::ZobristTable<unsigned long, 2>, std::allocator<open_spiel::chess_common::ZobristTable<unsigned long, 2>>>::_Vector_impl_data" = type { ptr, ptr, ptr }
%"class.open_spiel::phantom_go::PhantomGoBoard" = type <{ %"struct.std::array.3", [2 x i8], %"struct.std::array.5", i8, i8, [2 x i8], i32, %"struct.std::array.6", [2 x i8], %"struct.std::array.7", i64, %"struct.std::array.8", i32, i32, i16, [6 x i8] }>
%"struct.std::array.3" = type { [2 x %"struct.std::array.4"] }
%"struct.std::array.4" = type { [361 x i8] }
%"struct.std::array.5" = type { [2 x i32] }
%"struct.std::array.6" = type { [441 x %"struct.open_spiel::phantom_go::PhantomGoBoard::Vertex"] }
%"struct.open_spiel::phantom_go::PhantomGoBoard::Vertex" = type { i16, i16, i8 }
%"struct.std::array.7" = type { [441 x %"struct.open_spiel::phantom_go::PhantomGoBoard::Chain"] }
%"struct.open_spiel::phantom_go::PhantomGoBoard::Chain" = type { i32, i16, i16, i16 }
%"struct.std::array.8" = type { [4 x i16] }
%"class.open_spiel::chess_common::ZobristTable.16" = type { %"class.std::vector.17" }
%"class.std::vector.17" = type { %"struct.std::_Vector_base.18" }
%"struct.std::_Vector_base.18" = type { %"struct.std::_Vector_base<unsigned long, std::allocator<unsigned long>>::_Vector_impl" }
%"struct.std::_Vector_base<unsigned long, std::allocator<unsigned long>>::_Vector_impl" = type { %"struct.std::_Vector_base<unsigned long, std::allocator<unsigned long>>::_Vector_impl_data" }
%"struct.std::_Vector_base<unsigned long, std::allocator<unsigned long>>::_Vector_impl_data" = type { ptr, ptr, ptr }

@__dso_handle = external hidden global i8
@_ZZN10open_spiel10phantom_go14PhantomGoBoard8SetStoneEtNS0_7GoColorEE14zobrist_values = internal global %"class.open_spiel::chess_common::ZobristTable" zeroinitializer, align 8
@_ZGVZN10open_spiel10phantom_go14PhantomGoBoard8SetStoneEtNS0_7GoColorEE14zobrist_values = internal global i64 0, align 8

; Function Attrs: mustprogress nounwind uwtable
define linkonce_odr noundef nonnull align 2 dereferenceable(6) ptr @_ZNSt14__array_traitsIN10open_spiel10phantom_go14PhantomGoBoard6VertexELm441EE6_S_refERA441_KS3_m(ptr noundef nonnull align 2 dereferenceable(2646) %0, i64 noundef %1) #4 comdat align 2 {
  %3 = alloca ptr, align 8
  %4 = alloca i64, align 8
  store ptr %0, ptr %3, align 8
  store i64 %1, ptr %4, align 8
  %5 = load ptr, ptr %3, align 8
  %6 = load i64, ptr %4, align 8
  %7 = getelementptr inbounds [441 x %"struct.open_spiel::phantom_go::PhantomGoBoard::Vertex"], ptr %5, i64 0, i64 %6
  ret ptr %7
}

; Function Attrs: mustprogress nounwind uwtable
define linkonce_odr noundef nonnull align 8 dereferenceable(8) ptr @_ZNKSt6vectorImSaImEEixEm(ptr noundef nonnull align 8 dereferenceable(24) %0, i64 noundef %1) #4 comdat align 2 {
  %3 = alloca ptr, align 8
  %4 = alloca i64, align 8
  store ptr %0, ptr %3, align 8
  store i64 %1, ptr %4, align 8
  %5 = load ptr, ptr %3, align 8
  %6 = getelementptr inbounds nuw %"struct.std::_Vector_base.18", ptr %5, i32 0, i32 0
  %7 = getelementptr inbounds nuw %"struct.std::_Vector_base<unsigned long, std::allocator<unsigned long>>::_Vector_impl_data", ptr %6, i32 0, i32 0
  %8 = load ptr, ptr %7, align 8
  %9 = load i64, ptr %4, align 8
  %10 = getelementptr inbounds i64, ptr %8, i64 %9
  ret ptr %10
}

; Function Attrs: mustprogress nounwind uwtable
define linkonce_odr noundef nonnull align 2 dereferenceable(6) ptr @_ZNKSt5arrayIN10open_spiel10phantom_go14PhantomGoBoard6VertexELm441EEixEm(ptr noundef nonnull align 2 dereferenceable(2646) %0, i64 noundef %1) #4 comdat align 2 {
  %3 = alloca ptr, align 8
  %4 = alloca i64, align 8
  store ptr %0, ptr %3, align 8
  store i64 %1, ptr %4, align 8
  %5 = load ptr, ptr %3, align 8
  %6 = getelementptr inbounds nuw %"struct.std::array.6", ptr %5, i32 0, i32 0
  %7 = load i64, ptr %4, align 8
  %8 = call noundef nonnull align 2 dereferenceable(6) ptr @_ZNSt14__array_traitsIN10open_spiel10phantom_go14PhantomGoBoard6VertexELm441EE6_S_refERA441_KS3_m(ptr noundef nonnull align 2 dereferenceable(2646) %6, i64 noundef %7) #3
  ret ptr %8
}

; Function Attrs: mustprogress nounwind uwtable
define linkonce_odr noundef nonnull align 8 dereferenceable(24) ptr @_ZNKSt6vectorIN10open_spiel12chess_common12ZobristTableImLm2EJEEESaIS3_EEixEm(ptr noundef nonnull align 8 dereferenceable(24) %0, i64 noundef %1) #4 comdat align 2 {
  %3 = alloca ptr, align 8
  %4 = alloca i64, align 8
  store ptr %0, ptr %3, align 8
  store i64 %1, ptr %4, align 8
  %5 = load ptr, ptr %3, align 8
  %6 = getelementptr inbounds nuw %"struct.std::_Vector_base.12", ptr %5, i32 0, i32 0
  %7 = getelementptr inbounds nuw %"struct.std::_Vector_base<open_spiel::chess_common::ZobristTable<unsigned long, 2>, std::allocator<open_spiel::chess_common::ZobristTable<unsigned long, 2>>>::_Vector_impl_data", ptr %6, i32 0, i32 0
  %8 = load ptr, ptr %7, align 8
  %9 = load i64, ptr %4, align 8
  %10 = getelementptr inbounds %"class.open_spiel::chess_common::ZobristTable.16", ptr %8, i64 %9
  ret ptr %10
}

; Function Attrs: mustprogress nounwind uwtable
define linkonce_odr noundef nonnull align 2 dereferenceable(6) ptr @_ZNSt5arrayIN10open_spiel10phantom_go14PhantomGoBoard6VertexELm441EEixEm(ptr noundef nonnull align 2 dereferenceable(2646) %0, i64 noundef %1) #4 comdat align 2 {
  %3 = alloca ptr, align 8
  %4 = alloca i64, align 8
  store ptr %0, ptr %3, align 8
  store i64 %1, ptr %4, align 8
  %5 = load ptr, ptr %3, align 8
  %6 = getelementptr inbounds nuw %"struct.std::array.6", ptr %5, i32 0, i32 0
  %7 = load i64, ptr %4, align 8
  %8 = call noundef nonnull align 2 dereferenceable(6) ptr @_ZNSt14__array_traitsIN10open_spiel10phantom_go14PhantomGoBoard6VertexELm441EE6_S_refERA441_KS3_m(ptr noundef nonnull align 2 dereferenceable(2646) %6, i64 noundef %7) #3
  ret ptr %8
}

; Function Attrs: mustprogress nounwind uwtable
define linkonce_odr noundef i64 @_ZNK10open_spiel12chess_common12ZobristTableImLm2EJEEixEm(ptr noundef nonnull align 8 dereferenceable(24) %0, i64 noundef %1) #4 comdat align 2 {
  %3 = alloca ptr, align 8
  %4 = alloca i64, align 8
  store ptr %0, ptr %3, align 8
  store i64 %1, ptr %4, align 8
  %5 = load ptr, ptr %3, align 8
  %6 = getelementptr inbounds nuw %"class.open_spiel::chess_common::ZobristTable.16", ptr %5, i32 0, i32 0
  %7 = load i64, ptr %4, align 8
  %8 = call noundef nonnull align 8 dereferenceable(8) ptr @_ZNKSt6vectorImSaImEEixEm(ptr noundef nonnull align 8 dereferenceable(24) %6, i64 noundef %7) #3
  %9 = load i64, ptr %8, align 8
  ret i64 %9
}

; Function Attrs: mustprogress nounwind uwtable
define linkonce_odr noundef zeroext i8 @_ZNK10open_spiel10phantom_go14PhantomGoBoard10PointColorEt(ptr noundef nonnull align 8 dereferenceable(8706) %0, i16 noundef zeroext %1) #4 comdat align 2 {
  %3 = alloca ptr, align 8
  %4 = alloca i16, align 2
  store ptr %0, ptr %3, align 8
  store i16 %1, ptr %4, align 2
  %5 = load ptr, ptr %3, align 8
  %6 = getelementptr inbounds nuw %"class.open_spiel::phantom_go::PhantomGoBoard", ptr %5, i32 0, i32 7
  %7 = load i16, ptr %4, align 2
  %8 = zext i16 %7 to i64
  %9 = call noundef nonnull align 2 dereferenceable(6) ptr @_ZNKSt5arrayIN10open_spiel10phantom_go14PhantomGoBoard6VertexELm441EEixEm(ptr noundef nonnull align 2 dereferenceable(2646) %6, i64 noundef %8) #3
  %10 = getelementptr inbounds nuw %"struct.open_spiel::phantom_go::PhantomGoBoard::Vertex", ptr %9, i32 0, i32 2
  %11 = load i8, ptr %10, align 2
  ret i8 %11
}

; Function Attrs: mustprogress nounwind uwtable
define linkonce_odr noundef nonnull align 8 dereferenceable(24) ptr @_ZNK10open_spiel12chess_common12ZobristTableImLm441EJLm2EEEixEm(ptr noundef nonnull align 8 dereferenceable(24) %0, i64 noundef %1) #4 comdat align 2 {
  %3 = alloca ptr, align 8
  %4 = alloca i64, align 8
  store ptr %0, ptr %3, align 8
  store i64 %1, ptr %4, align 8
  %5 = load ptr, ptr %3, align 8
  %6 = getelementptr inbounds nuw %"class.open_spiel::chess_common::ZobristTable", ptr %5, i32 0, i32 0
  %7 = load i64, ptr %4, align 8
  %8 = call noundef nonnull align 8 dereferenceable(24) ptr @_ZNKSt6vectorIN10open_spiel12chess_common12ZobristTableImLm2EJEEESaIS3_EEixEm(ptr noundef nonnull align 8 dereferenceable(24) %6, i64 noundef %7) #3
  ret ptr %8
}

; Function Attrs: mustprogress uwtable
define void @_ZN10open_spiel10phantom_go14PhantomGoBoard8SetStoneEtNS0_7GoColorE(ptr noundef nonnull align 8 dereferenceable(8706) %0, i16 noundef zeroext %1, i8 noundef zeroext %2) #5 align 2 personality ptr @__gxx_personality_v0 {
  %4 = alloca ptr, align 8
  %5 = alloca i16, align 2
  %6 = alloca i8, align 1
  %7 = alloca ptr, align 8
  %8 = alloca i32, align 4
  store ptr %0, ptr %4, align 8
  store i16 %1, ptr %5, align 2
  store i8 %2, ptr %6, align 1
  %9 = load ptr, ptr %4, align 8
  %10 = load atomic i8, ptr @_ZGVZN10open_spiel10phantom_go14PhantomGoBoard8SetStoneEtNS0_7GoColorEE14zobrist_values acquire, align 8
  %11 = icmp eq i8 %10, 0
  br i1 %11, label %12, label %18, !prof !4

12:                                               ; preds = %3
  %13 = call i32 @__cxa_guard_acquire(ptr @_ZGVZN10open_spiel10phantom_go14PhantomGoBoard8SetStoneEtNS0_7GoColorEE14zobrist_values) #3
  %14 = icmp ne i32 %13, 0
  br i1 %14, label %15, label %18

15:                                               ; preds = %12
  invoke void @_ZN10open_spiel12chess_common12ZobristTableImLm441EJLm2EEEC2Em(ptr noundef nonnull align 8 dereferenceable(24) @_ZZN10open_spiel10phantom_go14PhantomGoBoard8SetStoneEtNS0_7GoColorEE14zobrist_values, i64 noundef 2765481)
          to label %16 unwind label %43

16:                                               ; preds = %15
  %17 = call i32 @__cxa_atexit(ptr @_ZN10open_spiel12chess_common12ZobristTableImLm441EJLm2EEED2Ev, ptr @_ZZN10open_spiel10phantom_go14PhantomGoBoard8SetStoneEtNS0_7GoColorEE14zobrist_values, ptr @__dso_handle) #3
  call void @__cxa_guard_release(ptr @_ZGVZN10open_spiel10phantom_go14PhantomGoBoard8SetStoneEtNS0_7GoColorEE14zobrist_values) #3
  br label %18

18:                                               ; preds = %16, %12, %3
  %19 = load i16, ptr %5, align 2
  %20 = zext i16 %19 to i64
  %21 = call noundef nonnull align 8 dereferenceable(24) ptr @_ZNK10open_spiel12chess_common12ZobristTableImLm441EJLm2EEEixEm(ptr noundef nonnull align 8 dereferenceable(24) @_ZZN10open_spiel10phantom_go14PhantomGoBoard8SetStoneEtNS0_7GoColorEE14zobrist_values, i64 noundef %20)
  %22 = load i8, ptr %6, align 1
  %23 = icmp eq i8 %22, 2
  br i1 %23, label %24, label %27

24:                                               ; preds = %18
  %25 = load i16, ptr %5, align 2
  %26 = call noundef zeroext i8 @_ZNK10open_spiel10phantom_go14PhantomGoBoard10PointColorEt(ptr noundef nonnull align 8 dereferenceable(8706) %9, i16 noundef zeroext %25)
  br label %29

27:                                               ; preds = %18
  %28 = load i8, ptr %6, align 1
  br label %29

29:                                               ; preds = %27, %24
  %30 = phi i8 [ %26, %24 ], [ %28, %27 ]
  %31 = zext i8 %30 to i32
  %32 = sext i32 %31 to i64
  %33 = call noundef i64 @_ZNK10open_spiel12chess_common12ZobristTableImLm2EJEEixEm(ptr noundef nonnull align 8 dereferenceable(24) %21, i64 noundef %32)
  %34 = getelementptr inbounds nuw %"class.open_spiel::phantom_go::PhantomGoBoard", ptr %9, i32 0, i32 10
  %35 = load i64, ptr %34, align 8
  %36 = xor i64 %35, %33
  store i64 %36, ptr %34, align 8
  %37 = load i8, ptr %6, align 1
  %38 = getelementptr inbounds nuw %"class.open_spiel::phantom_go::PhantomGoBoard", ptr %9, i32 0, i32 7
  %39 = load i16, ptr %5, align 2
  %40 = zext i16 %39 to i64
  %41 = call noundef nonnull align 2 dereferenceable(6) ptr @_ZNSt5arrayIN10open_spiel10phantom_go14PhantomGoBoard6VertexELm441EEixEm(ptr noundef nonnull align 2 dereferenceable(2646) %38, i64 noundef %40) #3
  %42 = getelementptr inbounds nuw %"struct.open_spiel::phantom_go::PhantomGoBoard::Vertex", ptr %41, i32 0, i32 2
  store i8 %37, ptr %42, align 2
  ret void

43:                                               ; preds = %15
  %44 = landingpad { ptr, i32 }
          cleanup
  %45 = extractvalue { ptr, i32 } %44, 0
  store ptr %45, ptr %7, align 8
  %46 = extractvalue { ptr, i32 } %44, 1
  store i32 %46, ptr %8, align 4
  call void @__cxa_guard_abort(ptr @_ZGVZN10open_spiel10phantom_go14PhantomGoBoard8SetStoneEtNS0_7GoColorEE14zobrist_values) #3
  br label %47

47:                                               ; preds = %43
  %48 = load ptr, ptr %7, align 8
  %49 = load i32, ptr %8, align 4
  %50 = insertvalue { ptr, i32 } poison, ptr %48, 0
  %51 = insertvalue { ptr, i32 } %50, i32 %49, 1
  resume { ptr, i32 } %51
}