; Function Attrs: mustprogress uwtable
define void @_ZN10open_spiel10phantom_go14PhantomGoBoard8SetStoneEtNS0_7GoColorE(ptr nocapture noundef nonnull align 8 dereferenceable(8706) %0, i16 noundef zeroext %1, i8 noundef zeroext %2) local_unnamed_addr #8 align 2 personality ptr @__gxx_personality_v0 {
  %4 = load atomic i8, ptr @_ZGVZN10open_spiel10phantom_go14PhantomGoBoard8SetStoneEtNS0_7GoColorEE14zobrist_values acquire, align 8
  %5 = icmp eq i8 %4, 0
  br i1 %5, label %6, label %11, !prof !4

6:                                                ; preds = %3
  %7 = tail call i32 @__cxa_guard_acquire(ptr nonnull @_ZGVZN10open_spiel10phantom_go14PhantomGoBoard8SetStoneEtNS0_7GoColorEE14zobrist_values) #26
  %.not = icmp eq i32 %7, 0
  br i1 %.not, label %11, label %8

8:                                                ; preds = %6
  invoke void @_ZN10open_spiel12chess_common12ZobristTableImLm441EJLm2EEEC2Em(ptr noundef nonnull align 8 dereferenceable(24) @_ZZN10open_spiel10phantom_go14PhantomGoBoard8SetStoneEtNS0_7GoColorEE14zobrist_values, i64 noundef 2765481)
          to label %9 unwind label %31

9:                                                ; preds = %8
  %10 = tail call i32 @__cxa_atexit(ptr nonnull @_ZN10open_spiel12chess_common12ZobristTableImLm441EJLm2EEED2Ev, ptr nonnull @_ZZN10open_spiel10phantom_go14PhantomGoBoard8SetStoneEtNS0_7GoColorEE14zobrist_values, ptr nonnull @__dso_handle) #26
  tail call void @__cxa_guard_release(ptr nonnull @_ZGVZN10open_spiel10phantom_go14PhantomGoBoard8SetStoneEtNS0_7GoColorEE14zobrist_values) #26
  br label %11

11:                                               ; preds = %9, %6, %3
  %12 = zext i16 %1 to i64
  %13 = load ptr, ptr @_ZZN10open_spiel10phantom_go14PhantomGoBoard8SetStoneEtNS0_7GoColorEE14zobrist_values, align 8
  %14 = icmp eq i8 %2, 2
  br i1 %14, label %15, label %19

15:                                               ; preds = %11
  %16 = getelementptr inbounds nuw i8, ptr %0, i64 740
  %17 = getelementptr inbounds [441 x %"struct.open_spiel::phantom_go::PhantomGoBoard::Vertex"], ptr %16, i64 0, i64 %12, i32 2
  %18 = load i8, ptr %17, align 2
  br label %19

19:                                               ; preds = %11, %15
  %20 = phi i8 [ %18, %15 ], [ %2, %11 ]
  %21 = getelementptr inbounds %"class.open_spiel::chess_common::ZobristTable.16", ptr %13, i64 %12
  %22 = zext i8 %20 to i64
  %23 = load ptr, ptr %21, align 8
  %24 = getelementptr inbounds i64, ptr %23, i64 %22
  %25 = load i64, ptr %24, align 8
  %26 = getelementptr inbounds nuw i8, ptr %0, i64 8680
  %27 = load i64, ptr %26, align 8
  %28 = xor i64 %27, %25
  store i64 %28, ptr %26, align 8
  %29 = getelementptr inbounds nuw i8, ptr %0, i64 740
  %30 = getelementptr inbounds [441 x %"struct.open_spiel::phantom_go::PhantomGoBoard::Vertex"], ptr %29, i64 0, i64 %12, i32 2
  store i8 %2, ptr %30, align 2
  ret void

31:                                               ; preds = %8
  %32 = landingpad { ptr, i32 }
          cleanup
  tail call void @__cxa_guard_abort(ptr nonnull @_ZGVZN10open_spiel10phantom_go14PhantomGoBoard8SetStoneEtNS0_7GoColorEE14zobrist_values) #26
  resume { ptr, i32 } %32
}